; ModuleID = '11/310.c'
source_filename = "11/310.c"
target datalayout = "e-m:e-p270:32:32-p271:32:32-p272:64:64-i64:64-f80:128-n8:16:32:64-S128"
target triple = "x86_64-pc-linux-gnu"

@.str = private unnamed_addr constant [7 x i8] c"%d%d%d\00", align 1
@.str.1 = private unnamed_addr constant [3 x i8] c"%d\00", align 1

; Function Attrs: noinline nounwind uwtable
define dso_local i32 @main() #0 {
  %1 = alloca i32, align 4
  %2 = alloca i32, align 4
  %3 = alloca i32, align 4
  %4 = alloca i32, align 4
  %5 = alloca i32, align 4
  %6 = alloca i32, align 4
  %7 = alloca i32, align 4
  %8 = alloca i32, align 4
  %9 = alloca i32, align 4
  store i32 0, i32* %1, align 4
  store i32 0, i32* %8, align 4
  %10 = call i32 (i8*, ...) @__isoc99_scanf(i8* getelementptr inbounds ([7 x i8], [7 x i8]* @.str, i64 0, i64 0), i32* %2, i32* %3, i32* %4)
  %11 = load i32, i32* %2, align 4
  %12 = srem i32 %11, 4
  %13 = icmp eq i32 %12, 0
  br i1 %13, label %14, label %18

14:                                               ; preds = %0
  %15 = load i32, i32* %2, align 4
  %16 = srem i32 %15, 100
  %17 = icmp ne i32 %16, 0
  br i1 %17, label %22, label %18

18:                                               ; preds = %14, %0
  %19 = load i32, i32* %2, align 4
  %20 = srem i32 %19, 400
  %21 = icmp eq i32 %20, 0
  br i1 %21, label %22, label %23

22:                                               ; preds = %18, %14
  store i32 29, i32* %5, align 4
  br label %24

23:                                               ; preds = %18
  store i32 28, i32* %5, align 4
  br label %24

24:                                               ; preds = %23, %22
  store i32 1, i32* %6, align 4
  br label %25

25:                                               ; preds = %62, %24
  %26 = load i32, i32* %6, align 4
  %27 = load i32, i32* %3, align 4
  %28 = icmp slt i32 %26, %27
  br i1 %28, label %29, label %65

29:                                               ; preds = %25
  %30 = load i32, i32* %6, align 4
  %31 = icmp eq i32 %30, 1
  br i1 %31, label %50, label %32

32:                                               ; preds = %29
  %33 = load i32, i32* %6, align 4
  %34 = icmp eq i32 %33, 3
  br i1 %34, label %50, label %35

35:                                               ; preds = %32
  %36 = load i32, i32* %6, align 4
  %37 = icmp eq i32 %36, 5
  br i1 %37, label %50, label %38

38:                                               ; preds = %35
  %39 = load i32, i32* %6, align 4
  %40 = icmp eq i32 %39, 7
  br i1 %40, label %50, label %41

41:                                               ; preds = %38
  %42 = load i32, i32* %6, align 4
  %43 = icmp eq i32 %42, 8
  br i1 %43, label %50, label %44

44:                                               ; preds = %41
  %45 = load i32, i32* %6, align 4
  %46 = icmp eq i32 %45, 10
  br i1 %46, label %50, label %47

47:                                               ; preds = %44
  %48 = load i32, i32* %6, align 4
  %49 = icmp eq i32 %48, 12
  br i1 %49, label %50, label %51

50:                                               ; preds = %47, %44, %41, %38, %35, %32, %29
  store i32 31, i32* %7, align 4
  br label %58

51:                                               ; preds = %47
  %52 = load i32, i32* %6, align 4
  %53 = icmp eq i32 %52, 2
  br i1 %53, label %54, label %56

54:                                               ; preds = %51
  %55 = load i32, i32* %5, align 4
  store i32 %55, i32* %7, align 4
  br label %57

56:                                               ; preds = %51
  store i32 30, i32* %7, align 4
  br label %57

57:                                               ; preds = %56, %54
  br label %58

58:                                               ; preds = %57, %50
  %59 = load i32, i32* %8, align 4
  %60 = load i32, i32* %7, align 4
  %61 = add nsw i32 %59, %60
  store i32 %61, i32* %8, align 4
  br label %62

62:                                               ; preds = %58
  %63 = load i32, i32* %6, align 4
  %64 = add nsw i32 %63, 1
  store i32 %64, i32* %6, align 4
  br label %25

65:                                               ; preds = %25
  %66 = load i32, i32* %8, align 4
  %67 = load i32, i32* %4, align 4
  %68 = add nsw i32 %66, %67
  store i32 %68, i32* %9, align 4
  %69 = load i32, i32* %9, align 4
  %70 = call i32 (i8*, ...) @printf(i8* getelementptr inbounds ([3 x i8], [3 x i8]* @.str.1, i64 0, i64 0), i32 %69)
  ret i32 0
}

declare dso_local i32 @__isoc99_scanf(i8*, ...) #1

declare dso_local i32 @printf(i8*, ...) #1


!llvm.module.flags = !{!0}
!llvm.ident = !{!1}

!0 = !{i32 1, !"wchar_size", i32 4}
!1 = !{!"clang version 10.0.0-4ubuntu1 "}
